; Function Attrs: mustprogress nounwind uwtable
define dso_local i32 @_ZNK4llvm15X86RegisterInfo16getFrameRegisterERKNS_15MachineFunctionE(ptr noundef nonnull readonly align 8 captures(none) dereferenceable(328) %0, ptr noundef nonnull align 8 dereferenceable(1041) %1) unnamed_addr #2 align 2 {
  %3 = getelementptr inbounds nuw i8, ptr %1, i64 16
  %4 = load ptr, ptr %3, align 8
  %5 = load ptr, ptr %4, align 8
  %6 = getelementptr inbounds nuw i8, ptr %5, i64 136
  %7 = load ptr, ptr %6, align 8
  %8 = tail call noundef ptr %7(ptr noundef nonnull align 8 dereferenceable(288) %4) #22
  %9 = load ptr, ptr %8, align 8
  %10 = getelementptr inbounds nuw i8, ptr %9, i64 200
  %11 = load ptr, ptr %10, align 8
  %12 = tail call noundef zeroext i1 %11(ptr noundef nonnull align 8 dereferenceable(60) %8, ptr noundef nonnull align 8 dereferenceable(1041) %1) #22
  %.in.v = select i1 %12, i64 320, i64 316
  %.in = getelementptr inbounds nuw i8, ptr %0, i64 %.in.v
  %13 = load i32, ptr %.in, align 4
  ret i32 %13
}